; Function Attrs: mustprogress uwtable
define dso_local noundef i32 @_ZN7cmCTest22GetTestModelFromStringERKNSt7__cxx1112basic_stringIcSt11char_traitsIcESaIcEEE(ptr noundef nonnull align 8 dereferenceable(32) %0) local_unnamed_addr #3 align 2 personality ptr @__gxx_personality_v0 {
  %2 = alloca %"class.std::__cxx11::basic_string", align 8
  %3 = tail call noundef zeroext i1 @_ZNKSt7__cxx1112basic_stringIcSt11char_traitsIcESaIcEE5emptyEv(ptr noundef nonnull align 8 dereferenceable(32) %0) #28
  br i1 %3, label %21, label %4

4:                                                ; preds = %1
  call void @_ZN5cmsys11SystemTools9LowerCaseERKNSt7__cxx1112basic_stringIcSt11char_traitsIcESaIcEEE(ptr dead_on_unwind nonnull writable sret(%"class.std::__cxx11::basic_string") align 8 %2, ptr noundef nonnull align 8 dereferenceable(32) %0)
  %5 = call { i64, ptr } @_ZNKSt7__cxx1112basic_stringIcSt11char_traitsIcESaIcEEcvSt17basic_string_viewIcS2_EEv(ptr noundef nonnull align 8 dereferenceable(32) %2) #28
  %6 = extractvalue { i64, ptr } %5, 0
  %.sroa.speculated.i.i.i.i = call i64 @llvm.umin.i64(i64 %6, i64 4)
  %7 = icmp eq i64 %6, 0
  br i1 %7, label %_Z18cmHasLiteralPrefixILm5EEbSt17basic_string_viewIcSt11char_traitsIcEERAT__Kc.exit, label %_ZNSt11char_traitsIcE7compareEPKcS2_m.exit.i.i.i.i

_ZNSt11char_traitsIcE7compareEPKcS2_m.exit.i.i.i.i: ; preds = %4
  %8 = extractvalue { i64, ptr } %5, 1
  %bcmp.i.i = call i32 @bcmp(ptr %8, ptr nonnull @.str.100, i64 %.sroa.speculated.i.i.i.i)
  %9 = icmp eq i32 %bcmp.i.i, 0
  br i1 %9, label %_Z18cmHasLiteralPrefixILm5EEbSt17basic_string_viewIcSt11char_traitsIcEERAT__Kc.exit, label %_Z18cmHasLiteralPrefixILm5EEbSt17basic_string_viewIcSt11char_traitsIcEERAT__Kc.exit.thread

_Z18cmHasLiteralPrefixILm5EEbSt17basic_string_viewIcSt11char_traitsIcEERAT__Kc.exit: ; preds = %4, %_ZNSt11char_traitsIcE7compareEPKcS2_m.exit.i.i.i.i
  %10 = add nuw nsw i64 %.sroa.speculated.i.i.i.i, 4294967292
  %11 = and i64 %10, 4294967295
  %12 = icmp eq i64 %11, 0
  br i1 %12, label %_Z18cmHasLiteralPrefixILm5EEbSt17basic_string_viewIcSt11char_traitsIcEERAT__Kc.exit11.thread, label %_Z18cmHasLiteralPrefixILm5EEbSt17basic_string_viewIcSt11char_traitsIcEERAT__Kc.exit.thread

_Z18cmHasLiteralPrefixILm5EEbSt17basic_string_viewIcSt11char_traitsIcEERAT__Kc.exit.thread: ; preds = %_ZNSt11char_traitsIcE7compareEPKcS2_m.exit.i.i.i.i, %_Z18cmHasLiteralPrefixILm5EEbSt17basic_string_viewIcSt11char_traitsIcEERAT__Kc.exit
  %13 = call { i64, ptr } @_ZNKSt7__cxx1112basic_stringIcSt11char_traitsIcESaIcEEcvSt17basic_string_viewIcS2_EEv(ptr noundef nonnull align 8 dereferenceable(32) %2) #28
  %.fr16 = freeze { i64, ptr } %13
  %14 = extractvalue { i64, ptr } %.fr16, 0
  %.sroa.speculated.i.i.i.i6 = call i64 @llvm.umin.i64(i64 %14, i64 4)
  %15 = icmp eq i64 %14, 0
  br i1 %15, label %_Z18cmHasLiteralPrefixILm5EEbSt17basic_string_viewIcSt11char_traitsIcEERAT__Kc.exit11, label %_ZNSt11char_traitsIcE7compareEPKcS2_m.exit.i.i.i.i7

_ZNSt11char_traitsIcE7compareEPKcS2_m.exit.i.i.i.i7: ; preds = %_Z18cmHasLiteralPrefixILm5EEbSt17basic_string_viewIcSt11char_traitsIcEERAT__Kc.exit.thread
  %16 = extractvalue { i64, ptr } %.fr16, 1
  %bcmp.i.i8 = call i32 @bcmp(ptr %16, ptr nonnull @.str.101, i64 %.sroa.speculated.i.i.i.i6)
  %17 = icmp eq i32 %bcmp.i.i8, 0
  br i1 %17, label %_Z18cmHasLiteralPrefixILm5EEbSt17basic_string_viewIcSt11char_traitsIcEERAT__Kc.exit11, label %_Z18cmHasLiteralPrefixILm5EEbSt17basic_string_viewIcSt11char_traitsIcEERAT__Kc.exit11.thread

_Z18cmHasLiteralPrefixILm5EEbSt17basic_string_viewIcSt11char_traitsIcEERAT__Kc.exit11: ; preds = %_Z18cmHasLiteralPrefixILm5EEbSt17basic_string_viewIcSt11char_traitsIcEERAT__Kc.exit.thread, %_ZNSt11char_traitsIcE7compareEPKcS2_m.exit.i.i.i.i7
  %18 = add nuw nsw i64 %.sroa.speculated.i.i.i.i6, 4294967292
  %19 = and i64 %18, 4294967295
  %20 = icmp eq i64 %19, 0
  %spec.select = zext i1 %20 to i32
  br label %_Z18cmHasLiteralPrefixILm5EEbSt17basic_string_viewIcSt11char_traitsIcEERAT__Kc.exit11.thread

_Z18cmHasLiteralPrefixILm5EEbSt17basic_string_viewIcSt11char_traitsIcEERAT__Kc.exit11.thread: ; preds = %_Z18cmHasLiteralPrefixILm5EEbSt17basic_string_viewIcSt11char_traitsIcEERAT__Kc.exit11, %_ZNSt11char_traitsIcE7compareEPKcS2_m.exit.i.i.i.i7, %_Z18cmHasLiteralPrefixILm5EEbSt17basic_string_viewIcSt11char_traitsIcEERAT__Kc.exit
  %.0 = phi i32 [ 2, %_Z18cmHasLiteralPrefixILm5EEbSt17basic_string_viewIcSt11char_traitsIcEERAT__Kc.exit ], [ 0, %_ZNSt11char_traitsIcE7compareEPKcS2_m.exit.i.i.i.i7 ], [ %spec.select, %_Z18cmHasLiteralPrefixILm5EEbSt17basic_string_viewIcSt11char_traitsIcEERAT__Kc.exit11 ]
  call void @_ZNSt7__cxx1112basic_stringIcSt11char_traitsIcESaIcEED1Ev(ptr noundef nonnull align 8 dereferenceable(32) %2) #28
  br label %21

21:                                               ; preds = %1, %_Z18cmHasLiteralPrefixILm5EEbSt17basic_string_viewIcSt11char_traitsIcEERAT__Kc.exit11.thread
  %.1 = phi i32 [ %.0, %_Z18cmHasLiteralPrefixILm5EEbSt17basic_string_viewIcSt11char_traitsIcEERAT__Kc.exit11.thread ], [ 0, %1 ]
  ret i32 %.1
}